; Function Attrs: mustprogress null_pointer_is_valid sspstrong uwtable
define void @_ZN11CaptureFile6reloadEv(ptr noundef readonly align 8 captures(none) dereferenceable_or_null(48) %0) local_unnamed_addr #5 align 2 {
  %2 = getelementptr inbounds nuw i8, ptr %0, i64 16
  %3 = load ptr, ptr %2, align 8
  %.not = icmp eq ptr %3, null
  br i1 %.not, label %10, label %4

4:                                                ; preds = %1
  %5 = getelementptr inbounds nuw i8, ptr %3, i64 8
  %6 = load i32, ptr %5, align 8
  %7 = icmp eq i32 %6, 4
  br i1 %7, label %8, label %10

8:                                                ; preds = %4
  %9 = tail call i32 @cf_reload(ptr noundef nonnull %3)
  br label %10

10:                                               ; preds = %8, %4, %1
  ret void
}